target datalayout = "e-m:e-p270:32:32-p271:32:32-p272:64:64-i64:64-i128:128-f80:128-n8:16:32:64-S128"
target triple = "x86_64-pc-linux-gnu"

%struct.SetExprState = type { i32, ptr, ptr, ptr, %struct.FmgrInfo, ptr, ptr, ptr, i8, i8, i8, i8, ptr }
%struct.FmgrInfo = type { ptr, i32, i16, i8, i8, i8, ptr, ptr, ptr }
%struct.Node = type { i32 }
%struct.FuncExpr = type { %struct.Expr, i32, i32, i8, i8, i32, i32, i32, ptr, i32 }
%struct.Expr = type { i32 }
%struct.ExprContext = type { i32, ptr, ptr, ptr, ptr, ptr, ptr, ptr, ptr, ptr, i64, i8, i64, i8, ptr, ptr, ptr, ptr }

; Function Attrs: inlinehint nounwind uwtable
define internal ptr @newNode(i64 noundef %0, i32 noundef %1) #2 {
  %3 = alloca i64, align 8
  %4 = alloca i32, align 4
  %5 = alloca ptr, align 8
  store i64 %0, ptr %3, align 8
  store i32 %1, ptr %4, align 4
  call void @llvm.lifetime.start.p0(i64 8, ptr %5) #7
  %6 = load i64, ptr %3, align 8
  %7 = call ptr @palloc0(i64 noundef %6)
  store ptr %7, ptr %5, align 8
  %8 = load i32, ptr %4, align 4
  %9 = load ptr, ptr %5, align 8
  %10 = getelementptr inbounds nuw %struct.Node, ptr %9, i32 0, i32 0
  store i32 %8, ptr %10, align 4
  %11 = load ptr, ptr %5, align 8
  call void @llvm.lifetime.end.p0(i64 8, ptr %5) #7
  ret ptr %11
}

; Function Attrs: nounwind uwtable
define dso_local ptr @ExecInitTableFunctionResult(ptr noundef %0, ptr noundef %1, ptr noundef %2) #0 {
  %4 = alloca ptr, align 8
  %5 = alloca ptr, align 8
  %6 = alloca ptr, align 8
  %7 = alloca ptr, align 8
  %8 = alloca ptr, align 8
  store ptr %0, ptr %4, align 8
  store ptr %1, ptr %5, align 8
  store ptr %2, ptr %6, align 8
  call void @llvm.lifetime.start.p0(i64 8, ptr %7) #7
  %9 = call ptr @newNode(i64 noundef 120, i32 noundef 390)
  store ptr %9, ptr %7, align 8
  %10 = load ptr, ptr %7, align 8
  %11 = getelementptr inbounds nuw %struct.SetExprState, ptr %10, i32 0, i32 9
  store i8 0, ptr %11, align 1
  %12 = load ptr, ptr %4, align 8
  %13 = load ptr, ptr %7, align 8
  %14 = getelementptr inbounds nuw %struct.SetExprState, ptr %13, i32 0, i32 1
  store ptr %12, ptr %14, align 8
  %15 = load ptr, ptr %7, align 8
  %16 = getelementptr inbounds nuw %struct.SetExprState, ptr %15, i32 0, i32 4
  %17 = getelementptr inbounds nuw %struct.FmgrInfo, ptr %16, i32 0, i32 1
  store i32 0, ptr %17, align 8
  %18 = load ptr, ptr %4, align 8
  %19 = getelementptr inbounds nuw %struct.Node, ptr %18, i32 0, i32 0
  %20 = load i32, ptr %19, align 4
  %21 = icmp eq i32 %20, 15
  br i1 %21, label %22, label %54

22:                                               ; preds = %3
  call void @llvm.lifetime.start.p0(i64 8, ptr %8) #7
  %23 = load ptr, ptr %4, align 8
  store ptr %23, ptr %8, align 8
  %24 = load ptr, ptr %8, align 8
  %25 = getelementptr inbounds nuw %struct.FuncExpr, ptr %24, i32 0, i32 3
  %26 = load i8, ptr %25, align 4, !range !4, !noundef !5
  %27 = trunc i8 %26 to i1
  %28 = load ptr, ptr %7, align 8
  %29 = getelementptr inbounds nuw %struct.SetExprState, ptr %28, i32 0, i32 9
  %30 = zext i1 %27 to i8
  store i8 %30, ptr %29, align 1
  %31 = load ptr, ptr %8, align 8
  %32 = getelementptr inbounds nuw %struct.FuncExpr, ptr %31, i32 0, i32 8
  %33 = load ptr, ptr %32, align 8
  %34 = load ptr, ptr %6, align 8
  %35 = call ptr @ExecInitExprList(ptr noundef %33, ptr noundef %34)
  %36 = load ptr, ptr %7, align 8
  %37 = getelementptr inbounds nuw %struct.SetExprState, ptr %36, i32 0, i32 2
  store ptr %35, ptr %37, align 8
  %38 = load ptr, ptr %8, align 8
  %39 = getelementptr inbounds nuw %struct.FuncExpr, ptr %38, i32 0, i32 1
  %40 = load i32, ptr %39, align 4
  %41 = load ptr, ptr %8, align 8
  %42 = getelementptr inbounds nuw %struct.FuncExpr, ptr %41, i32 0, i32 7
  %43 = load i32, ptr %42, align 8
  %44 = load ptr, ptr %4, align 8
  %45 = load ptr, ptr %7, align 8
  %46 = load ptr, ptr %6, align 8
  %47 = load ptr, ptr %5, align 8
  %48 = getelementptr inbounds nuw %struct.ExprContext, ptr %47, i32 0, i32 4
  %49 = load ptr, ptr %48, align 8
  %50 = load ptr, ptr %8, align 8
  %51 = getelementptr inbounds nuw %struct.FuncExpr, ptr %50, i32 0, i32 3
  %52 = load i8, ptr %51, align 4, !range !4, !noundef !5
  %53 = trunc i8 %52 to i1
  call void @init_sexpr(i32 noundef %40, i32 noundef %43, ptr noundef %44, ptr noundef %45, ptr noundef %46, ptr noundef %49, i1 noundef zeroext %53, i1 noundef zeroext false)
  call void @llvm.lifetime.end.p0(i64 8, ptr %8) #7
  br label %60

54:                                               ; preds = %3
  %55 = load ptr, ptr %4, align 8
  %56 = load ptr, ptr %6, align 8
  %57 = call ptr @ExecInitExpr(ptr noundef %55, ptr noundef %56)
  %58 = load ptr, ptr %7, align 8
  %59 = getelementptr inbounds nuw %struct.SetExprState, ptr %58, i32 0, i32 3
  store ptr %57, ptr %59, align 8
  br label %60

60:                                               ; preds = %54, %22
  %61 = load ptr, ptr %7, align 8
  call void @llvm.lifetime.end.p0(i64 8, ptr %7) #7
  ret ptr %61
}