; Function Attrs: nounwind uwtable
define dso_local noundef ptr @ExecInitTableFunctionResult(ptr noundef %0, ptr noundef readonly captures(none) %1, ptr noundef %2) local_unnamed_addr #0 {
  %4 = tail call noundef ptr @palloc0(i64 noundef 120) #6
  store i32 390, ptr %4, align 4
  %5 = getelementptr inbounds nuw i8, ptr %4, i64 105
  store i8 0, ptr %5, align 1
  %6 = getelementptr inbounds nuw i8, ptr %4, i64 8
  store ptr %0, ptr %6, align 8
  %7 = getelementptr inbounds nuw i8, ptr %4, i64 40
  store i32 0, ptr %7, align 8
  %8 = load i32, ptr %0, align 4
  %9 = icmp eq i32 %8, 15
  br i1 %9, label %10, label %25

10:                                               ; preds = %3
  %11 = getelementptr inbounds nuw i8, ptr %0, i64 12
  %12 = load i8, ptr %11, align 4, !range !4, !noundef !5
  store i8 %12, ptr %5, align 1
  %13 = getelementptr inbounds nuw i8, ptr %0, i64 32
  %14 = load ptr, ptr %13, align 8
  %15 = tail call ptr @ExecInitExprList(ptr noundef %14, ptr noundef %2) #6
  %16 = getelementptr inbounds nuw i8, ptr %4, i64 16
  store ptr %15, ptr %16, align 8
  %17 = getelementptr inbounds nuw i8, ptr %0, i64 4
  %18 = load i32, ptr %17, align 4
  %19 = getelementptr inbounds nuw i8, ptr %0, i64 24
  %20 = load i32, ptr %19, align 8
  %21 = getelementptr inbounds nuw i8, ptr %1, i64 32
  %22 = load ptr, ptr %21, align 8
  %23 = load i8, ptr %11, align 4, !range !4, !noundef !5
  %24 = trunc nuw i8 %23 to i1
  tail call fastcc void @init_sexpr(i32 noundef %18, i32 noundef %20, ptr noundef nonnull %0, ptr noundef nonnull %4, ptr noundef %2, ptr noundef %22, i1 noundef zeroext %24, i1 noundef zeroext false)
  br label %28

25:                                               ; preds = %3
  %26 = tail call ptr @ExecInitExpr(ptr noundef nonnull %0, ptr noundef %2) #6
  %27 = getelementptr inbounds nuw i8, ptr %4, i64 24
  store ptr %26, ptr %27, align 8
  br label %28

28:                                               ; preds = %25, %10
  ret ptr %4
}